Certificate:
    Data:
        Version: 3 (0x2)
        Serial Number: 2 (0x2)
    Signature Algorithm: sha256WithRSAEncryption
        Issuer: C=SE, ST=Stockholm, L=Kista, O=KTH, OU=ICT/COS/NSLab, CN=KTH CA/name=EasyRSA/emailAddress=webmaster@ssvl.kth.se
        Validity
            Not Before: Sep  8 13:08:31 2016 GMT
            Not After : Sep  6 13:08:31 2026 GMT
        Subject: C=SE, ST=Stockholm, L=Kista, O=KTH, OU=ICT/COS/NSLab, CN=client/name=EasyRSA/emailAddress=webmaster@ssvl.kth.se
        Subject Public Key Info:
            Public Key Algorithm: rsaEncryption
                Public-Key: (2048 bit)
                Modulus:
                    00:ba:11:d3:5c:5a:e8:09:d9:d1:88:0f:57:5a:e8:
                    4b:c3:f5:f5:99:59:d6:29:98:81:e5:88:70:7b:86:
                    ec:d7:51:71:6a:3f:60:ae:a9:b7:66:03:06:5d:6a:
                    39:c5:20:6f:57:ea:f6:ec:6c:9d:68:e4:92:ff:77:
                    5f:45:ba:d8:e9:67:5d:c0:5b:2f:e2:69:5b:57:60:
                    5c:93:8a:c3:9f:6f:bf:17:d0:c2:c0:14:ac:c5:ff:
                    79:c9:87:fd:a0:29:f2:fd:75:0e:90:03:50:b5:ff:
                    7a:a4:fc:54:48:44:ff:b3:a3:8a:dc:d1:b1:90:0d:
                    5c:02:dd:40:62:8f:1c:40:78:b8:89:8d:15:2e:d5:
                    39:55:85:7a:a7:72:29:fe:e8:0a:12:4e:55:58:e1:
                    73:87:58:5a:27:09:d9:46:4b:3b:78:40:cc:1a:83:
                    45:74:8f:ab:bd:e9:c5:ee:7b:e9:af:80:03:f2:ab:
                    94:94:e7:f4:1b:d1:5c:c9:7b:46:41:b6:15:41:af:
                    bb:6f:df:ae:df:e8:6c:fb:58:e3:75:50:e0:39:ff:
                    33:6e:d1:36:20:21:5d:f8:4c:a0:82:b2:ca:a5:a2:
                    08:ee:74:cd:56:63:e7:11:1e:90:96:d3:d5:d9:de:
                    6d:68:b2:5a:35:fa:0e:9a:f7:6c:3a:d3:6b:97:d6:
                    ad:09
                Exponent: 65537 (0x10001)
        X509v3 extensions:
            X509v3 Basic Constraints: 
                CA:FALSE
            Netscape Comment: 
                Easy-RSA Generated Certificate
            X509v3 Subject Key Identifier: 
                70:F3:01:B6:CE:1B:8C:A0:48:4C:72:DD:59:D3:D5:D0:6E:80:18:4C
            X509v3 Authority Key Identifier: 
                keyid:A7:39:FC:56:47:0E:C6:3D:C4:58:82:7B:D3:72:D1:86:56:6B:5E:09
                DirName:/C=SE/ST=Stockholm/L=Kista/O=KTH/OU=ICT/COS/NSLab/CN=KTH CA/name=EasyRSA/emailAddress=webmaster@ssvl.kth.se
                serial:84:8C:10:B3:57:09:39:81

            X509v3 Extended Key Usage: 
                TLS Web Client Authentication
            X509v3 Key Usage: 
                Digital Signature
            X509v3 Subject Alternative Name: 
                DNS:client
    Signature Algorithm: sha256WithRSAEncryption
         ab:60:1c:37:88:d0:2c:7e:02:18:c7:1e:5b:c1:07:93:3f:1d:
         63:02:7e:91:1f:d8:ac:af:bd:4b:3c:6f:8d:e0:71:be:94:e0:
         cc:ac:07:68:67:cb:5e:f2:73:f8:2c:b2:88:a4:68:6c:42:dd:
         65:ee:e8:b6:9e:1e:34:da:c1:74:6f:f9:ba:cc:d8:f9:a5:69:
         24:f0:86:5c:31:7e:42:e8:45:f3:e0:50:40:cf:b9:c8:32:2a:
         f0:69:76:b4:1b:f7:07:41:ef:4a:fd:71:04:72:47:f3:f4:93:
         ae:8b:d9:7a:2f:89:af:94:e8:23:98:82:cf:d3:c2:d0:ae:fb:
         da:eb:c1:06:66:45:d3:de:76:57:19:f4:ce:d1:99:5e:5c:07:
         9a:92:5b:cf:95:fa:73:be:1c:0d:0a:71:5a:86:de:08:05:c4:
         57:a5:fd:36:16:fb:02:42:00:ff:3c:16:72:a5:8d:d8:ad:db:
         ac:73:1b:81:3d:c1:17:2d:7a:6c:0e:e3:e4:93:64:9d:6a:07:
         53:00:ad:91:9a:98:b2:14:44:0b:27:87:c7:59:4d:d7:87:24:
         b2:e3:8e:2a:79:b7:cd:36:58:df:22:22:18:06:56:52:f9:75:
         1b:2a:2f:29:b3:b6:57:49:43:30:a2:d8:fd:63:27:e2:96:e5:
         84:34:33:90
-----BEGIN CERTIFICATE-----
MIIFKTCCBBGgAwIBAgIBAjANBgkqhkiG9w0BAQsFADCBoDELMAkGA1UEBhMCU0Ux
EjAQBgNVBAgTCVN0b2NraG9sbTEOMAwGA1UEBxMFS2lzdGExDDAKBgNVBAoTA0tU
SDEWMBQGA1UECxMNSUNUL0NPUy9OU0xhYjEPMA0GA1UEAxMGS1RIIENBMRAwDgYD
VQQpEwdFYXN5UlNBMSQwIgYJKoZIhvcNAQkBFhV3ZWJtYXN0ZXJAc3N2bC5rdGgu
c2UwHhcNMTYwOTA4MTMwODMxWhcNMjYwOTA2MTMwODMxWjCBoDELMAkGA1UEBhMC
U0UxEjAQBgNVBAgTCVN0b2NraG9sbTEOMAwGA1UEBxMFS2lzdGExDDAKBgNVBAoT
A0tUSDEWMBQGA1UECxMNSUNUL0NPUy9OU0xhYjEPMA0GA1UEAxMGY2xpZW50MRAw
DgYDVQQpEwdFYXN5UlNBMSQwIgYJKoZIhvcNAQkBFhV3ZWJtYXN0ZXJAc3N2bC5r
dGguc2UwggEiMA0GCSqGSIb3DQEBAQUAA4IBDwAwggEKAoIBAQC6EdNcWugJ2dGI
D1da6EvD9fWZWdYpmIHliHB7huzXUXFqP2CuqbdmAwZdajnFIG9X6vbsbJ1o5JL/
d19FutjpZ13AWy/iaVtXYFyTisOfb78X0MLAFKzF/3nJh/2gKfL9dQ6QA1C1/3qk
/FRIRP+zo4rc0bGQDVwC3UBijxxAeLiJjRUu1TlVhXqncin+6AoSTlVY4XOHWFon
CdlGSzt4QMwag0V0j6u96cXue+mvgAPyq5SU5/Qb0VzJe0ZBthVBr7tv367f6Gz7
WON1UOA5/zNu0TYgIV34TKCCssqlogjudM1WY+cRHpCW09XZ3m1oslo1+g6a92w6
02uX1q0JAgMBAAGjggFqMIIBZjAJBgNVHRMEAjAAMC0GCWCGSAGG+EIBDQQgFh5F
YXN5LVJTQSBHZW5lcmF0ZWQgQ2VydGlmaWNhdGUwHQYDVR0OBBYEFHDzAbbOG4yg
SExy3VnT1dBugBhMMIHVBgNVHSMEgc0wgcqAFKc5/FZHDsY9xFiCe9Ny0YZWa14J
oYGmpIGjMIGgMQswCQYDVQQGEwJTRTESMBAGA1UECBMJU3RvY2tob2xtMQ4wDAYD
VQQHEwVLaXN0YTEMMAoGA1UEChMDS1RIMRYwFAYDVQQLEw1JQ1QvQ09TL05TTGFi
MQ8wDQYDVQQDEwZLVEggQ0ExEDAOBgNVBCkTB0Vhc3lSU0ExJDAiBgkqhkiG9w0B
CQEWFXdlYm1hc3RlckBzc3ZsLmt0aC5zZYIJAISMELNXCTmBMBMGA1UdJQQMMAoG
CCsGAQUFBwMCMAsGA1UdDwQEAwIHgDARBgNVHREECjAIggZjbGllbnQwDQYJKoZI
hvcNAQELBQADggEBAKtgHDeI0Cx+AhjHHlvBB5M/HWMCfpEf2KyvvUs8b43gcb6U
4MysB2hny17yc/gssoikaGxC3WXu6LaeHjTawXRv+brM2PmlaSTwhlwxfkLoRfPg
UEDPucgyKvBpdrQb9wdB70r9cQRyR/P0k66L2Xovia+U6COYgs/TwtCu+9rrwQZm
RdPedlcZ9M7RmV5cB5qSW8+V+nO+HA0KcVqG3ggFxFel/TYW+wJCAP88FnKljdit
26xzG4E9wRctemwO4+STZJ1qB1MArZGamLIURAsnh8dZTdeHJLLjjip5t802WN8i
IhgGVlL5dRsqLymztldJQzCi2P1jJ+KW5YQ0M5A=
-----END CERTIFICATE-----
